; Function Attrs: mustprogress uwtable
define void @_ZN5arrow7MapTypeC2ESt10shared_ptrINS_5FieldEEb(ptr noundef nonnull align 8 dereferenceable(73) %0, ptr noundef captures(none) %1, i1 noundef zeroext %2) unnamed_addr #1 align 2 personality ptr @__gxx_personality_v0 {
  %4 = alloca %"class.std::shared_ptr.27", align 8
  %5 = load ptr, ptr %1, align 8, !tbaa !566
  store ptr %5, ptr %4, align 8, !tbaa !566
  %6 = getelementptr inbounds nuw i8, ptr %4, i64 8
  %7 = getelementptr inbounds nuw i8, ptr %1, i64 8
  %8 = load ptr, ptr %7, align 8, !tbaa !352
  store ptr null, ptr %7, align 8, !tbaa !352
  store ptr %8, ptr %6, align 8, !tbaa !352
  store ptr null, ptr %1, align 8, !tbaa !566
  invoke void @_ZN5arrow8ListTypeC2ESt10shared_ptrINS_5FieldEE(ptr noundef nonnull align 8 dereferenceable(72) %0, ptr noundef nonnull %4)
          to label %9 unwind label %35

9:                                                ; preds = %3
  %10 = load ptr, ptr %6, align 8, !tbaa !352
  %.not.i.i = icmp eq ptr %10, null
  br i1 %.not.i.i, label %_ZNSt12__shared_ptrIN5arrow5FieldELN9__gnu_cxx12_Lock_policyE2EED2Ev.exit, label %11

11:                                               ; preds = %9
  %12 = getelementptr inbounds nuw i8, ptr %10, i64 8
  %13 = load atomic i64, ptr %12 acquire, align 8
  %14 = icmp eq i64 %13, 4294967297
  %15 = trunc i64 %13 to i32
  br i1 %14, label %16, label %24

16:                                               ; preds = %11
  store i32 0, ptr %12, align 8, !tbaa !482
  %17 = getelementptr inbounds nuw i8, ptr %10, i64 12
  store i32 0, ptr %17, align 4, !tbaa !493
  %18 = load ptr, ptr %10, align 8, !tbaa !330
  %19 = getelementptr inbounds nuw i8, ptr %18, i64 16
  %20 = load ptr, ptr %19, align 8
  call void %20(ptr noundef nonnull align 8 dereferenceable(16) %10) #38
  %21 = load ptr, ptr %10, align 8, !tbaa !330
  %22 = getelementptr inbounds nuw i8, ptr %21, i64 24
  %23 = load ptr, ptr %22, align 8
  call void %23(ptr noundef nonnull align 8 dereferenceable(16) %10) #38
  br label %_ZNSt12__shared_ptrIN5arrow5FieldELN9__gnu_cxx12_Lock_policyE2EED2Ev.exit

24:                                               ; preds = %11
  %25 = load i8, ptr @__libc_single_threaded, align 1, !tbaa !42
  %.not.i.i.i = icmp eq i8 %25, 0
  br i1 %.not.i.i.i, label %28, label %26

26:                                               ; preds = %24
  %27 = add nsw i32 %15, -1
  store i32 %27, ptr %12, align 4, !tbaa !358
  br label %_ZN9__gnu_cxx27__exchange_and_add_dispatchEPii.exit.i.i.i

28:                                               ; preds = %24
  %29 = atomicrmw volatile add ptr %12, i32 -1 acq_rel, align 4
  br label %_ZN9__gnu_cxx27__exchange_and_add_dispatchEPii.exit.i.i.i

_ZN9__gnu_cxx27__exchange_and_add_dispatchEPii.exit.i.i.i: ; preds = %28, %26
  %.0.i.i.i.i = phi i32 [ %15, %26 ], [ %29, %28 ]
  %30 = icmp eq i32 %.0.i.i.i.i, 1
  br i1 %30, label %31, label %_ZNSt12__shared_ptrIN5arrow5FieldELN9__gnu_cxx12_Lock_policyE2EED2Ev.exit, !prof !559

31:                                               ; preds = %_ZN9__gnu_cxx27__exchange_and_add_dispatchEPii.exit.i.i.i
  call void @_ZNSt16_Sp_counted_baseILN9__gnu_cxx12_Lock_policyE2EE24_M_release_last_use_coldEv(ptr noundef nonnull align 8 dereferenceable(16) %10) #38
  br label %_ZNSt12__shared_ptrIN5arrow5FieldELN9__gnu_cxx12_Lock_policyE2EED2Ev.exit

_ZNSt12__shared_ptrIN5arrow5FieldELN9__gnu_cxx12_Lock_policyE2EED2Ev.exit: ; preds = %9, %16, %_ZN9__gnu_cxx27__exchange_and_add_dispatchEPii.exit.i.i.i, %31
  %32 = zext i1 %2 to i8
  store ptr getelementptr inbounds nuw inrange(-16, 80) (i8, ptr @_ZTVN5arrow7MapTypeE, i64 16), ptr %0, align 8, !tbaa !330
  %33 = getelementptr inbounds nuw i8, ptr %0, i64 72
  store i8 %32, ptr %33, align 8, !tbaa !803
  %34 = getelementptr inbounds nuw i8, ptr %0, i64 40
  store i32 30, ptr %34, align 8, !tbaa !336
  ret void

35:                                               ; preds = %3
  %36 = landingpad { ptr, i32 }
          cleanup
  call void @_ZNSt12__shared_ptrIN5arrow5FieldELN9__gnu_cxx12_Lock_policyE2EED2Ev(ptr noundef nonnull align 8 dereferenceable(16) %4) #38
  resume { ptr, i32 } %36
}